
back_trace1:     file format elf32-littlearm


Disassembly of section .init:

00008364 <_init>:
    8364:	e92d4010 	push	{r4, lr}
    8368:	eb000028 	bl	8410 <call_gmon_start>
    836c:	e8bd8010 	pop	{r4, pc}

Disassembly of section .plt:

00008370 <.plt>:
    8370:	e52de004 	push	{lr}		; (str lr, [sp, #-4]!)
    8374:	e59fe004 	ldr	lr, [pc, #4]	; 8380 <_init+0x1c>
    8378:	e08fe00e 	add	lr, pc, lr
    837c:	e5bef008 	ldr	pc, [lr, #8]!
    8380:	00008c80 	.word	0x00008c80
    8384:	e28fc600 	add	ip, pc, #0	; 0x0
    8388:	e28cca08 	add	ip, ip, #32768	; 0x8000
    838c:	e5bcfc80 	ldr	pc, [ip, #3200]!
    8390:	e28fc600 	add	ip, pc, #0	; 0x0
    8394:	e28cca08 	add	ip, ip, #32768	; 0x8000
    8398:	e5bcfc78 	ldr	pc, [ip, #3192]!
    839c:	e28fc600 	add	ip, pc, #0	; 0x0
    83a0:	e28cca08 	add	ip, ip, #32768	; 0x8000
    83a4:	e5bcfc70 	ldr	pc, [ip, #3184]!
    83a8:	e28fc600 	add	ip, pc, #0	; 0x0
    83ac:	e28cca08 	add	ip, ip, #32768	; 0x8000
    83b0:	e5bcfc68 	ldr	pc, [ip, #3176]!
    83b4:	e28fc600 	add	ip, pc, #0	; 0x0
    83b8:	e28cca08 	add	ip, ip, #32768	; 0x8000
    83bc:	e5bcfc60 	ldr	pc, [ip, #3168]!
    83c0:	e28fc600 	add	ip, pc, #0	; 0x0
    83c4:	e28cca08 	add	ip, ip, #32768	; 0x8000
    83c8:	e5bcfc58 	ldr	pc, [ip, #3160]!
    83cc:	e28fc600 	add	ip, pc, #0	; 0x0
    83d0:	e28cca08 	add	ip, ip, #32768	; 0x8000
    83d4:	e5bcfc50 	ldr	pc, [ip, #3152]!

Disassembly of section .text:

000083d8 <_start>:
    83d8:	e59fc024 	ldr	ip, [pc, #36]	; 8404 <_start+0x2c>
    83dc:	e3a0b000 	mov	fp, #0	; 0x0
    83e0:	e49d1004 	pop	{r1}		; (ldr r1, [sp], #4)
    83e4:	e1a0200d 	mov	r2, sp
    83e8:	e52d2004 	push	{r2}		; (str r2, [sp, #-4]!)
    83ec:	e52d0004 	push	{r0}		; (str r0, [sp, #-4]!)
    83f0:	e59f0010 	ldr	r0, [pc, #16]	; 8408 <_start+0x30>
    83f4:	e59f3010 	ldr	r3, [pc, #16]	; 840c <_start+0x34>
    83f8:	e52dc004 	push	{ip}		; (str ip, [sp, #-4]!)
    83fc:	ebffffe3 	bl	8390 <_init+0x2c>
    8400:	ebffffdf 	bl	8384 <_init+0x20>
    8404:	00008614 	.word	0x00008614
    8408:	00008584 	.word	0x00008584
    840c:	00008618 	.word	0x00008618

00008410 <call_gmon_start>:
    8410:	e59f3014 	ldr	r3, [pc, #20]	; 842c <call_gmon_start+0x1c>
    8414:	e59f2014 	ldr	r2, [pc, #20]	; 8430 <call_gmon_start+0x20>
    8418:	e08f3003 	add	r3, pc, r3
    841c:	e7932002 	ldr	r2, [r3, r2]
    8420:	e3520000 	cmp	r2, #0	; 0x0
    8424:	012fff1e 	bxeq	lr
    8428:	eaffffdb 	b	839c <_init+0x38>
    842c:	00008be0 	.word	0x00008be0
    8430:	00000028 	.word	0x00000028

00008434 <__do_global_dtors_aux>:
    8434:	e59f3010 	ldr	r3, [pc, #16]	; 844c <__do_global_dtors_aux+0x18>
    8438:	e5d32000 	ldrb	r2, [r3]
    843c:	e3520000 	cmp	r2, #0	; 0x0
    8440:	02822001 	addeq	r2, r2, #1	; 0x1
    8444:	05c32000 	strbeq	r2, [r3]
    8448:	e12fff1e 	bx	lr
    844c:	0001103c 	.word	0x0001103c

00008450 <frame_dummy>:
    8450:	e59f0020 	ldr	r0, [pc, #32]	; 8478 <frame_dummy+0x28>
    8454:	e92d4010 	push	{r4, lr}
    8458:	e5903000 	ldr	r3, [r0]
    845c:	e3530000 	cmp	r3, #0	; 0x0
    8460:	08bd8010 	popeq	{r4, pc}
    8464:	e59f3010 	ldr	r3, [pc, #16]	; 847c <frame_dummy+0x2c>
    8468:	e3530000 	cmp	r3, #0	; 0x0
    846c:	08bd8010 	popeq	{r4, pc}
    8470:	e12fff33 	blx	r3
    8474:	e8bd8010 	pop	{r4, pc}
    8478:	00010f14 	.word	0x00010f14
    847c:	00000000 	.word	0x00000000

00008480 <backtrace>:
    8480:	e1a0c00d 	mov	ip, sp
    8484:	e92dd800 	push	{fp, ip, lr, pc}
    8488:	e24cb004 	sub	fp, ip, #4	; 0x4
    848c:	e24dd008 	sub	sp, sp, #8	; 0x8
    8490:	e50b0010 	str	r0, [fp, #-16]
    8494:	e51b3010 	ldr	r3, [fp, #-16]
    8498:	e3530000 	cmp	r3, #0	; 0x0
    849c:	0a000010 	beq	84e4 <backtrace+0x64>
    84a0:	e59f3048 	ldr	r3, [pc, #72]	; 84f0 <backtrace+0x70>
    84a4:	e5933000 	ldr	r3, [r3]
    84a8:	e1a01003 	mov	r1, r3
    84ac:	e59f2040 	ldr	r2, [pc, #64]	; 84f4 <backtrace+0x74>
    84b0:	e51b3010 	ldr	r3, [fp, #-16]
    84b4:	e2433004 	sub	r3, r3, #4	; 0x4
    84b8:	e5933000 	ldr	r3, [r3]
    84bc:	e1a00001 	mov	r0, r1
    84c0:	e1a01002 	mov	r1, r2
    84c4:	e1a02003 	mov	r2, r3
    84c8:	ebffffbc 	bl	83c0 <_init+0x5c>
    84cc:	e51b3010 	ldr	r3, [fp, #-16]
    84d0:	e243300c 	sub	r3, r3, #12	; 0xc
    84d4:	e5933000 	ldr	r3, [r3]
    84d8:	e1a00003 	mov	r0, r3
    84dc:	ebffffe7 	bl	8480 <backtrace>
    84e0:	ea000000 	b	84e8 <backtrace+0x68>
    84e4:	e1a00000 	nop			(mov r0,r0)
    84e8:	e24bd00c 	sub	sp, fp, #12	; 0xc
    84ec:	e89da800 	ldm	sp, {fp, sp, pc}
    84f0:	00011038 	.word	0x00011038
    84f4:	0000868c 	.word	0x0000868c

000084f8 <bar>:
    84f8:	e1a0c00d 	mov	ip, sp
    84fc:	e92dd800 	push	{fp, ip, lr, pc}
    8500:	e24cb004 	sub	fp, ip, #4	; 0x4
    8504:	e59f0028 	ldr	r0, [pc, #40]	; 8534 <bar+0x3c>
    8508:	ebffffaf 	bl	83cc <_init+0x68>
    850c:	e59f0024 	ldr	r0, [pc, #36]	; 8538 <bar+0x40>
    8510:	ebffffad 	bl	83cc <_init+0x68>
    8514:	e1a0300b 	mov	r3, fp
    8518:	e1a00003 	mov	r0, r3
    851c:	ebffffd7 	bl	8480 <backtrace>
    8520:	e3a0000a 	mov	r0, #10	; 0xa
    8524:	ebffff9f 	bl	83a8 <_init+0x44>
    8528:	e3a03000 	mov	r3, #0	; 0x0
    852c:	e1a00003 	mov	r0, r3
    8530:	e89da800 	ldm	sp, {fp, sp, pc}
    8534:	00008690 	.word	0x00008690
    8538:	00008694 	.word	0x00008694

0000853c <foo>:
    853c:	e1a0c00d 	mov	ip, sp
    8540:	e92dd800 	push	{fp, ip, lr, pc}
    8544:	e24cb004 	sub	fp, ip, #4	; 0x4
    8548:	e59f002c 	ldr	r0, [pc, #44]	; 857c <foo+0x40>
    854c:	ebffff9e 	bl	83cc <_init+0x68>
    8550:	e59f0028 	ldr	r0, [pc, #40]	; 8580 <foo+0x44>
    8554:	ebffff9c 	bl	83cc <_init+0x68>
    8558:	e1a0300b 	mov	r3, fp
    855c:	e1a00003 	mov	r0, r3
    8560:	ebffffc6 	bl	8480 <backtrace>
    8564:	e3a0000a 	mov	r0, #10	; 0xa
    8568:	ebffff8e 	bl	83a8 <_init+0x44>
    856c:	ebffffe1 	bl	84f8 <bar>
    8570:	e1a03000 	mov	r3, r0
    8574:	e1a00003 	mov	r0, r3
    8578:	e89da800 	ldm	sp, {fp, sp, pc}
    857c:	000086a8 	.word	0x000086a8
    8580:	00008694 	.word	0x00008694

00008584 <main>:
    8584:	e1a0c00d 	mov	ip, sp
    8588:	e92dd800 	push	{fp, ip, lr, pc}
    858c:	e24cb004 	sub	fp, ip, #4	; 0x4
    8590:	e59f305c 	ldr	r3, [pc, #92]	; 85f4 <main+0x70>
    8594:	e1a00003 	mov	r0, r3
    8598:	e59f1058 	ldr	r1, [pc, #88]	; 85f8 <main+0x74>
    859c:	ebffff84 	bl	83b4 <_init+0x50>
    85a0:	e59f3054 	ldr	r3, [pc, #84]	; 85fc <main+0x78>
    85a4:	e1a00003 	mov	r0, r3
    85a8:	e59f1050 	ldr	r1, [pc, #80]	; 8600 <main+0x7c>
    85ac:	ebffff80 	bl	83b4 <_init+0x50>
    85b0:	e59f304c 	ldr	r3, [pc, #76]	; 8604 <main+0x80>
    85b4:	e1a00003 	mov	r0, r3
    85b8:	e59f1048 	ldr	r1, [pc, #72]	; 8608 <main+0x84>
    85bc:	ebffff7c 	bl	83b4 <_init+0x50>
    85c0:	e59f0044 	ldr	r0, [pc, #68]	; 860c <main+0x88>
    85c4:	ebffff80 	bl	83cc <_init+0x68>
    85c8:	e59f0040 	ldr	r0, [pc, #64]	; 8610 <main+0x8c>
    85cc:	ebffff7e 	bl	83cc <_init+0x68>
    85d0:	e1a0300b 	mov	r3, fp
    85d4:	e1a00003 	mov	r0, r3
    85d8:	ebffffa8 	bl	8480 <backtrace>
    85dc:	e3a0000a 	mov	r0, #10	; 0xa
    85e0:	ebffff70 	bl	83a8 <_init+0x44>
    85e4:	ebffffd4 	bl	853c <foo>
    85e8:	e1a03000 	mov	r3, r0
    85ec:	e1a00003 	mov	r0, r3
    85f0:	e89da800 	ldm	sp, {fp, sp, pc}
    85f4:	000086ac 	.word	0x000086ac
    85f8:	00008584 	.word	0x00008584
    85fc:	000086b8 	.word	0x000086b8
    8600:	0000853c 	.word	0x0000853c
    8604:	000086c4 	.word	0x000086c4
    8608:	000084f8 	.word	0x000084f8
    860c:	000086d0 	.word	0x000086d0
    8610:	00008694 	.word	0x00008694

00008614 <__libc_csu_fini>:
    8614:	e12fff1e 	bx	lr

00008618 <__libc_csu_init>:
    8618:	e92d47f0 	push	{r4, r5, r6, r7, r8, r9, sl, lr}
    861c:	e59fa050 	ldr	sl, [pc, #80]	; 8674 <__libc_csu_init+0x5c>
    8620:	e59f5050 	ldr	r5, [pc, #80]	; 8678 <__libc_csu_init+0x60>
    8624:	e1a06000 	mov	r6, r0
    8628:	e1a07001 	mov	r7, r1
    862c:	e1a08002 	mov	r8, r2
    8630:	ebffff4b 	bl	8364 <_init>
    8634:	e59f3040 	ldr	r3, [pc, #64]	; 867c <__libc_csu_init+0x64>
    8638:	e06a5005 	rsb	r5, sl, r5
    863c:	e08f3003 	add	r3, pc, r3
    8640:	e1b05145 	asrs	r5, r5, #2
    8644:	e083a00a 	add	sl, r3, sl
    8648:	08bd87f0 	popeq	{r4, r5, r6, r7, r8, r9, sl, pc}
    864c:	e3a04000 	mov	r4, #0	; 0x0
    8650:	e79a3104 	ldr	r3, [sl, r4, lsl #2]
    8654:	e1a00006 	mov	r0, r6
    8658:	e2844001 	add	r4, r4, #1	; 0x1
    865c:	e1a01007 	mov	r1, r7
    8660:	e1a02008 	mov	r2, r8
    8664:	e12fff33 	blx	r3
    8668:	e1540005 	cmp	r4, r5
    866c:	3afffff7 	bcc	8650 <__libc_csu_init+0x38>
    8670:	e8bd87f0 	pop	{r4, r5, r6, r7, r8, r9, sl, pc}
    8674:	ffffff0c 	.word	0xffffff0c
    8678:	ffffff10 	.word	0xffffff10
    867c:	000089bc 	.word	0x000089bc

Disassembly of section .fini:

00008680 <_fini>:
    8680:	e92d4010 	push	{r4, lr}
    8684:	e8bd8010 	pop	{r4, pc}
